target datalayout = "e-m:e-p270:32:32-p271:32:32-p272:64:64-i64:64-i128:128-f80:128-n8:16:32:64-S128"
target triple = "x86_64-pc-linux-gnu"

%struct.StringInfoData = type { ptr, i32, i32, i32 }
%struct.CopyFromStateData = type { i32, ptr, ptr, i32, i32, i8, i32, ptr, ptr, ptr, i8, ptr, %struct.CopyFormatOptions, ptr, ptr, ptr, i64, ptr, ptr, i8, ptr, i16, ptr, ptr, ptr, i64, ptr, ptr, ptr, i8, ptr, ptr, ptr, ptr, %struct.StringInfoData, i32, ptr, %struct.StringInfoData, i8, ptr, i32, i32, i8, i8, ptr, i32, i32, i8, i64 }
%struct.CopyFormatOptions = type { i32, i8, i8, i8, i32, ptr, i32, ptr, ptr, i32, ptr, ptr, ptr, ptr, i8, ptr, ptr, i8, ptr, ptr, i8, ptr, i8, i32, i32, i64, ptr }

; Function Attrs: nounwind uwtable
define internal void @CopyLoadRawBuf(ptr noundef %0) #0 {
  %2 = alloca ptr, align 8
  %3 = alloca i32, align 4
  %4 = alloca i32, align 4
  store ptr %0, ptr %2, align 8
  call void @llvm.lifetime.start.p0(i64 4, ptr %3) #12
  call void @llvm.lifetime.start.p0(i64 4, ptr %4) #12
  %5 = load ptr, ptr %2, align 8
  %6 = getelementptr inbounds nuw %struct.CopyFromStateData, ptr %5, i32 0, i32 44
  %7 = load ptr, ptr %6, align 8
  %8 = load ptr, ptr %2, align 8
  %9 = getelementptr inbounds nuw %struct.CopyFromStateData, ptr %8, i32 0, i32 39
  %10 = load ptr, ptr %9, align 8
  %11 = icmp eq ptr %7, %10
  br i1 %11, label %12, label %13

12:                                               ; preds = %1
  br label %13

13:                                               ; preds = %12, %1
  %14 = load ptr, ptr %2, align 8
  %15 = getelementptr inbounds nuw %struct.CopyFromStateData, ptr %14, i32 0, i32 46
  %16 = load i32, ptr %15, align 4
  %17 = load ptr, ptr %2, align 8
  %18 = getelementptr inbounds nuw %struct.CopyFromStateData, ptr %17, i32 0, i32 45
  %19 = load i32, ptr %18, align 8
  %20 = sub i32 %16, %19
  store i32 %20, ptr %3, align 4
  %21 = load i32, ptr %3, align 4
  %22 = icmp sgt i32 %21, 0
  br i1 %22, label %23, label %42

23:                                               ; preds = %13
  %24 = load ptr, ptr %2, align 8
  %25 = getelementptr inbounds nuw %struct.CopyFromStateData, ptr %24, i32 0, i32 45
  %26 = load i32, ptr %25, align 8
  %27 = icmp sgt i32 %26, 0
  br i1 %27, label %28, label %42

28:                                               ; preds = %23
  %29 = load ptr, ptr %2, align 8
  %30 = getelementptr inbounds nuw %struct.CopyFromStateData, ptr %29, i32 0, i32 44
  %31 = load ptr, ptr %30, align 8
  %32 = load ptr, ptr %2, align 8
  %33 = getelementptr inbounds nuw %struct.CopyFromStateData, ptr %32, i32 0, i32 44
  %34 = load ptr, ptr %33, align 8
  %35 = load ptr, ptr %2, align 8
  %36 = getelementptr inbounds nuw %struct.CopyFromStateData, ptr %35, i32 0, i32 45
  %37 = load i32, ptr %36, align 8
  %38 = sext i32 %37 to i64
  %39 = getelementptr inbounds i8, ptr %34, i64 %38
  %40 = load i32, ptr %3, align 4
  %41 = sext i32 %40 to i64
  call void @llvm.memmove.p0.p0.i64(ptr align 1 %31, ptr align 1 %39, i64 %41, i1 false)
  br label %42

42:                                               ; preds = %28, %23, %13
  %43 = load ptr, ptr %2, align 8
  %44 = getelementptr inbounds nuw %struct.CopyFromStateData, ptr %43, i32 0, i32 45
  %45 = load i32, ptr %44, align 8
  %46 = load ptr, ptr %2, align 8
  %47 = getelementptr inbounds nuw %struct.CopyFromStateData, ptr %46, i32 0, i32 46
  %48 = load i32, ptr %47, align 4
  %49 = sub i32 %48, %45
  store i32 %49, ptr %47, align 4
  %50 = load ptr, ptr %2, align 8
  %51 = getelementptr inbounds nuw %struct.CopyFromStateData, ptr %50, i32 0, i32 45
  store i32 0, ptr %51, align 8
  %52 = load ptr, ptr %2, align 8
  %53 = getelementptr inbounds nuw %struct.CopyFromStateData, ptr %52, i32 0, i32 44
  %54 = load ptr, ptr %53, align 8
  %55 = load ptr, ptr %2, align 8
  %56 = getelementptr inbounds nuw %struct.CopyFromStateData, ptr %55, i32 0, i32 39
  %57 = load ptr, ptr %56, align 8
  %58 = icmp eq ptr %54, %57
  br i1 %58, label %59, label %69

59:                                               ; preds = %42
  %60 = load ptr, ptr %2, align 8
  %61 = getelementptr inbounds nuw %struct.CopyFromStateData, ptr %60, i32 0, i32 40
  %62 = load i32, ptr %61, align 8
  %63 = load ptr, ptr %2, align 8
  %64 = getelementptr inbounds nuw %struct.CopyFromStateData, ptr %63, i32 0, i32 41
  %65 = load i32, ptr %64, align 4
  %66 = sub i32 %65, %62
  store i32 %66, ptr %64, align 4
  %67 = load ptr, ptr %2, align 8
  %68 = getelementptr inbounds nuw %struct.CopyFromStateData, ptr %67, i32 0, i32 40
  store i32 0, ptr %68, align 8
  br label %69

69:                                               ; preds = %59, %42
  %70 = load ptr, ptr %2, align 8
  %71 = load ptr, ptr %2, align 8
  %72 = getelementptr inbounds nuw %struct.CopyFromStateData, ptr %71, i32 0, i32 44
  %73 = load ptr, ptr %72, align 8
  %74 = load ptr, ptr %2, align 8
  %75 = getelementptr inbounds nuw %struct.CopyFromStateData, ptr %74, i32 0, i32 46
  %76 = load i32, ptr %75, align 4
  %77 = sext i32 %76 to i64
  %78 = getelementptr inbounds i8, ptr %73, i64 %77
  %79 = load ptr, ptr %2, align 8
  %80 = getelementptr inbounds nuw %struct.CopyFromStateData, ptr %79, i32 0, i32 46
  %81 = load i32, ptr %80, align 4
  %82 = sub i32 65536, %81
  %83 = call i32 @CopyGetData(ptr noundef %70, ptr noundef %78, i32 noundef 1, i32 noundef %82)
  store i32 %83, ptr %4, align 4
  %84 = load i32, ptr %4, align 4
  %85 = load i32, ptr %3, align 4
  %86 = add i32 %85, %84
  store i32 %86, ptr %3, align 4
  %87 = load ptr, ptr %2, align 8
  %88 = getelementptr inbounds nuw %struct.CopyFromStateData, ptr %87, i32 0, i32 44
  %89 = load ptr, ptr %88, align 8
  %90 = load i32, ptr %3, align 4
  %91 = sext i32 %90 to i64
  %92 = getelementptr inbounds i8, ptr %89, i64 %91
  store i8 0, ptr %92, align 1
  %93 = load i32, ptr %3, align 4
  %94 = load ptr, ptr %2, align 8
  %95 = getelementptr inbounds nuw %struct.CopyFromStateData, ptr %94, i32 0, i32 46
  store i32 %93, ptr %95, align 4
  %96 = load i32, ptr %4, align 4
  %97 = sext i32 %96 to i64
  %98 = load ptr, ptr %2, align 8
  %99 = getelementptr inbounds nuw %struct.CopyFromStateData, ptr %98, i32 0, i32 48
  %100 = load i64, ptr %99, align 8
  %101 = add i64 %100, %97
  store i64 %101, ptr %99, align 8
  %102 = load ptr, ptr %2, align 8
  %103 = getelementptr inbounds nuw %struct.CopyFromStateData, ptr %102, i32 0, i32 48
  %104 = load i64, ptr %103, align 8
  call void @pgstat_progress_update_param(i32 noundef 0, i64 noundef %104)
  %105 = load i32, ptr %4, align 4
  %106 = icmp eq i32 %105, 0
  br i1 %106, label %107, label %110

107:                                              ; preds = %69
  %108 = load ptr, ptr %2, align 8
  %109 = getelementptr inbounds nuw %struct.CopyFromStateData, ptr %108, i32 0, i32 47
  store i8 1, ptr %109, align 8
  br label %110

110:                                              ; preds = %107, %69
  call void @llvm.lifetime.end.p0(i64 4, ptr %4) #12
  call void @llvm.lifetime.end.p0(i64 4, ptr %3) #12
  ret void
}

; Function Attrs: nounwind uwtable
define internal i32 @CopyReadBinaryData(ptr noundef %0, ptr noundef %1, i32 noundef %2) #0 {
  %4 = alloca ptr, align 8
  %5 = alloca ptr, align 8
  %6 = alloca i32, align 4
  %7 = alloca i32, align 4
  %8 = alloca i32, align 4
  %9 = alloca i32, align 4
  store ptr %0, ptr %4, align 8
  store ptr %1, ptr %5, align 8
  store i32 %2, ptr %6, align 4
  call void @llvm.lifetime.start.p0(i64 4, ptr %7) #12
  store i32 0, ptr %7, align 4
  %10 = load ptr, ptr %4, align 8
  %11 = getelementptr inbounds nuw %struct.CopyFromStateData, ptr %10, i32 0, i32 46
  %12 = load i32, ptr %11, align 4
  %13 = load ptr, ptr %4, align 8
  %14 = getelementptr inbounds nuw %struct.CopyFromStateData, ptr %13, i32 0, i32 45
  %15 = load i32, ptr %14, align 8
  %16 = sub i32 %12, %15
  %17 = load i32, ptr %6, align 4
  %18 = icmp sge i32 %16, %17
  br i1 %18, label %19, label %37

19:                                               ; preds = %3
  %20 = load ptr, ptr %5, align 8
  %21 = load ptr, ptr %4, align 8
  %22 = getelementptr inbounds nuw %struct.CopyFromStateData, ptr %21, i32 0, i32 44
  %23 = load ptr, ptr %22, align 8
  %24 = load ptr, ptr %4, align 8
  %25 = getelementptr inbounds nuw %struct.CopyFromStateData, ptr %24, i32 0, i32 45
  %26 = load i32, ptr %25, align 8
  %27 = sext i32 %26 to i64
  %28 = getelementptr inbounds i8, ptr %23, i64 %27
  %29 = load i32, ptr %6, align 4
  %30 = sext i32 %29 to i64
  call void @llvm.memcpy.p0.p0.i64(ptr align 1 %20, ptr align 1 %28, i64 %30, i1 false)
  %31 = load i32, ptr %6, align 4
  %32 = load ptr, ptr %4, align 8
  %33 = getelementptr inbounds nuw %struct.CopyFromStateData, ptr %32, i32 0, i32 45
  %34 = load i32, ptr %33, align 8
  %35 = add i32 %34, %31
  store i32 %35, ptr %33, align 8
  %36 = load i32, ptr %6, align 4
  store i32 %36, ptr %7, align 4
  br label %112

37:                                               ; preds = %3
  br label %38

38:                                               ; preds = %107, %37
  call void @llvm.lifetime.start.p0(i64 4, ptr %8) #12
  %39 = load ptr, ptr %4, align 8
  %40 = getelementptr inbounds nuw %struct.CopyFromStateData, ptr %39, i32 0, i32 46
  %41 = load i32, ptr %40, align 4
  %42 = load ptr, ptr %4, align 8
  %43 = getelementptr inbounds nuw %struct.CopyFromStateData, ptr %42, i32 0, i32 45
  %44 = load i32, ptr %43, align 8
  %45 = sub i32 %41, %44
  %46 = icmp eq i32 %45, 0
  br i1 %46, label %47, label %55

47:                                               ; preds = %38
  %48 = load ptr, ptr %4, align 8
  call void @CopyLoadRawBuf(ptr noundef %48)
  %49 = load ptr, ptr %4, align 8
  %50 = getelementptr inbounds nuw %struct.CopyFromStateData, ptr %49, i32 0, i32 47
  %51 = load i8, ptr %50, align 8, !range !4, !noundef !5
  %52 = trunc i8 %51 to i1
  br i1 %52, label %53, label %54

53:                                               ; preds = %47
  store i32 2, ptr %9, align 4
  br label %104

54:                                               ; preds = %47
  br label %55

55:                                               ; preds = %54, %38
  %56 = load i32, ptr %6, align 4
  %57 = load i32, ptr %7, align 4
  %58 = sub i32 %56, %57
  %59 = load ptr, ptr %4, align 8
  %60 = getelementptr inbounds nuw %struct.CopyFromStateData, ptr %59, i32 0, i32 46
  %61 = load i32, ptr %60, align 4
  %62 = load ptr, ptr %4, align 8
  %63 = getelementptr inbounds nuw %struct.CopyFromStateData, ptr %62, i32 0, i32 45
  %64 = load i32, ptr %63, align 8
  %65 = sub i32 %61, %64
  %66 = icmp slt i32 %58, %65
  br i1 %66, label %67, label %71

67:                                               ; preds = %55
  %68 = load i32, ptr %6, align 4
  %69 = load i32, ptr %7, align 4
  %70 = sub i32 %68, %69
  br label %79

71:                                               ; preds = %55
  %72 = load ptr, ptr %4, align 8
  %73 = getelementptr inbounds nuw %struct.CopyFromStateData, ptr %72, i32 0, i32 46
  %74 = load i32, ptr %73, align 4
  %75 = load ptr, ptr %4, align 8
  %76 = getelementptr inbounds nuw %struct.CopyFromStateData, ptr %75, i32 0, i32 45
  %77 = load i32, ptr %76, align 8
  %78 = sub i32 %74, %77
  br label %79

79:                                               ; preds = %71, %67
  %80 = phi i32 [ %70, %67 ], [ %78, %71 ]
  store i32 %80, ptr %8, align 4
  %81 = load ptr, ptr %5, align 8
  %82 = load ptr, ptr %4, align 8
  %83 = getelementptr inbounds nuw %struct.CopyFromStateData, ptr %82, i32 0, i32 44
  %84 = load ptr, ptr %83, align 8
  %85 = load ptr, ptr %4, align 8
  %86 = getelementptr inbounds nuw %struct.CopyFromStateData, ptr %85, i32 0, i32 45
  %87 = load i32, ptr %86, align 8
  %88 = sext i32 %87 to i64
  %89 = getelementptr inbounds i8, ptr %84, i64 %88
  %90 = load i32, ptr %8, align 4
  %91 = sext i32 %90 to i64
  call void @llvm.memcpy.p0.p0.i64(ptr align 1 %81, ptr align 1 %89, i64 %91, i1 false)
  %92 = load i32, ptr %8, align 4
  %93 = load ptr, ptr %4, align 8
  %94 = getelementptr inbounds nuw %struct.CopyFromStateData, ptr %93, i32 0, i32 45
  %95 = load i32, ptr %94, align 8
  %96 = add i32 %95, %92
  store i32 %96, ptr %94, align 8
  %97 = load i32, ptr %8, align 4
  %98 = load ptr, ptr %5, align 8
  %99 = sext i32 %97 to i64
  %100 = getelementptr inbounds i8, ptr %98, i64 %99
  store ptr %100, ptr %5, align 8
  %101 = load i32, ptr %8, align 4
  %102 = load i32, ptr %7, align 4
  %103 = add i32 %102, %101
  store i32 %103, ptr %7, align 4
  store i32 0, ptr %9, align 4
  br label %104

104:                                              ; preds = %79, %53
  call void @llvm.lifetime.end.p0(i64 4, ptr %8) #12
  %105 = load i32, ptr %9, align 4
  switch i32 %105, label %114 [
    i32 0, label %106
    i32 2, label %111
  ]

106:                                              ; preds = %104
  br label %107

107:                                              ; preds = %106
  %108 = load i32, ptr %7, align 4
  %109 = load i32, ptr %6, align 4
  %110 = icmp slt i32 %108, %109
  br i1 %110, label %38, label %111, !llvm.loop !9

111:                                              ; preds = %107, %104
  br label %112

112:                                              ; preds = %111, %19
  %113 = load i32, ptr %7, align 4
  store i32 1, ptr %9, align 4
  call void @llvm.lifetime.end.p0(i64 4, ptr %7) #12
  ret i32 %113

114:                                              ; preds = %104
  unreachable
}