; Function Attrs: nounwind uwtable
define internal fastcc i32 @CopyReadBinaryData(ptr noundef captures(none) %0, ptr noundef writeonly captures(none) %1, i32 noundef %2) unnamed_addr #0 {
  %4 = getelementptr inbounds nuw i8, ptr %0, i64 540
  %5 = load i32, ptr %4, align 4
  %6 = getelementptr inbounds nuw i8, ptr %0, i64 536
  %7 = load i32, ptr %6, align 8
  %8 = sub i32 %5, %7
  %.not = icmp slt i32 %8, %2
  %9 = getelementptr inbounds nuw i8, ptr %0, i64 528
  br i1 %.not, label %.preheader, label %15

.preheader:                                       ; preds = %3
  %10 = getelementptr inbounds nuw i8, ptr %0, i64 504
  %11 = getelementptr inbounds nuw i8, ptr %0, i64 512
  %12 = getelementptr inbounds nuw i8, ptr %0, i64 516
  %13 = getelementptr inbounds nuw i8, ptr %0, i64 552
  %14 = getelementptr inbounds nuw i8, ptr %0, i64 544
  br label %22

15:                                               ; preds = %3
  %16 = load ptr, ptr %9, align 8
  %17 = sext i32 %7 to i64
  %18 = getelementptr inbounds i8, ptr %16, i64 %17
  %19 = sext i32 %2 to i64
  tail call void @llvm.memcpy.p0.p0.i64(ptr align 1 %1, ptr align 1 %18, i64 %19, i1 false)
  %20 = load i32, ptr %6, align 8
  %21 = add i32 %20, %2
  store i32 %21, ptr %6, align 8
  br label %.thread

22:                                               ; preds = %.preheader, %43
  %23 = phi i32 [ %53, %43 ], [ %7, %.preheader ]
  %.137 = phi i32 [ %55, %43 ], [ 0, %.preheader ]
  %.035 = phi ptr [ %54, %43 ], [ %1, %.preheader ]
  %24 = load i32, ptr %4, align 4
  %25 = icmp eq i32 %24, %23
  br i1 %25, label %26, label %43

26:                                               ; preds = %22
  store i32 0, ptr %4, align 4
  store i32 0, ptr %6, align 8
  %27 = load ptr, ptr %9, align 8
  %28 = load ptr, ptr %10, align 8
  %29 = icmp eq ptr %27, %28
  br i1 %29, label %30, label %34

30:                                               ; preds = %26
  %31 = load i32, ptr %11, align 8
  %32 = load i32, ptr %12, align 4
  %33 = sub i32 %32, %31
  store i32 %33, ptr %12, align 4
  store i32 0, ptr %11, align 8
  br label %34

34:                                               ; preds = %30, %26
  %35 = tail call fastcc i32 @CopyGetData(ptr noundef nonnull %0, ptr noundef %27, i32 noundef 65536)
  %36 = load ptr, ptr %9, align 8
  %37 = sext i32 %35 to i64
  %38 = getelementptr inbounds i8, ptr %36, i64 %37
  store i8 0, ptr %38, align 1
  store i32 %35, ptr %4, align 4
  %39 = load i64, ptr %13, align 8
  %40 = add i64 %39, %37
  store i64 %40, ptr %13, align 8
  tail call void @pgstat_progress_update_param(i32 noundef 0, i64 noundef %40) #16
  %41 = icmp eq i32 %35, 0
  br i1 %41, label %CopyLoadRawBuf.exit.thread, label %CopyLoadRawBuf.exit

CopyLoadRawBuf.exit.thread:                       ; preds = %34
  store i8 1, ptr %14, align 8
  br label %.thread

CopyLoadRawBuf.exit:                              ; preds = %34
  %.pre = load i8, ptr %14, align 8, !range !4
  %42 = trunc nuw i8 %.pre to i1
  br i1 %42, label %.thread, label %CopyLoadRawBuf.exit._crit_edge

CopyLoadRawBuf.exit._crit_edge:                   ; preds = %CopyLoadRawBuf.exit
  %.pre46 = load i32, ptr %4, align 4
  %.pre47 = load i32, ptr %6, align 8
  br label %43

43:                                               ; preds = %CopyLoadRawBuf.exit._crit_edge, %22
  %44 = phi i32 [ %.pre47, %CopyLoadRawBuf.exit._crit_edge ], [ %23, %22 ]
  %45 = phi i32 [ %.pre46, %CopyLoadRawBuf.exit._crit_edge ], [ %24, %22 ]
  %46 = sub i32 %2, %.137
  %47 = sub i32 %45, %44
  %. = tail call i32 @llvm.smin.i32(i32 %46, i32 %47)
  %48 = load ptr, ptr %9, align 8
  %49 = sext i32 %44 to i64
  %50 = getelementptr inbounds i8, ptr %48, i64 %49
  %51 = sext i32 %. to i64
  tail call void @llvm.memcpy.p0.p0.i64(ptr align 1 %.035, ptr align 1 %50, i64 %51, i1 false)
  %52 = load i32, ptr %6, align 8
  %53 = add i32 %52, %.
  store i32 %53, ptr %6, align 8
  %54 = getelementptr inbounds i8, ptr %.035, i64 %51
  %55 = add i32 %., %.137
  %56 = icmp slt i32 %55, %2
  br i1 %56, label %22, label %.thread, !llvm.loop !18

.thread:                                          ; preds = %CopyLoadRawBuf.exit, %43, %CopyLoadRawBuf.exit.thread, %15
  %.036 = phi i32 [ %2, %15 ], [ %.137, %CopyLoadRawBuf.exit.thread ], [ %.137, %CopyLoadRawBuf.exit ], [ %55, %43 ]
  ret i32 %.036
}